; Function Attrs: mustprogress nofree norecurse nosync nounwind willreturn memory(argmem: read) uwtable
define { i64, i64 } @_ZN3re28Compiler8EndRangeEv(ptr nocapture noundef nonnull readonly align 8 dereferenceable(212) %this) local_unnamed_addr #13 align 2 {
entry:
  %rune_range_ = getelementptr inbounds i8, ptr %this, i64 192
  %retval.sroa.0.0.copyload = load i64, ptr %rune_range_, align 8
  %retval.sroa.2.0.rune_range_.sroa_idx = getelementptr inbounds i8, ptr %this, i64 200
  %retval.sroa.2.0.copyload = load i64, ptr %retval.sroa.2.0.rune_range_.sroa_idx, align 8
  %.fca.0.insert = insertvalue { i64, i64 } poison, i64 %retval.sroa.0.0.copyload, 0
  %.fca.1.insert = insertvalue { i64, i64 } %.fca.0.insert, i64 %retval.sroa.2.0.copyload, 1
  ret { i64, i64 } %.fca.1.insert
}